; ModuleID = 'bench/linux/original/jiffies.ll'
source_filename = "bench/linux/original/jiffies.ll"
target datalayout = "e-m:e-p270:32:32-p271:32:32-p272:64:64-i64:64-i128:128-f80:128-n8:16:32:64-S128"
target triple = "x86_64-unknown-linux-gnu"

module asm ".section \22.export_symbol\22,\22a\22 ; __export_symbol_jiffies: ; .asciz \22\22 ; .asciz \22\22 ; .balign 8 ; .quad jiffies ; .previous"
module asm ".section\09\22.initcall1.init\22, \22a\22\09\09"
module asm "__initcall__kmod_jiffies__307_69_init_jiffies_clocksource1:\09\09\09"
module asm ".long\09init_jiffies_clocksource - .\09"
module asm ".previous\09\09\09\09\09"

%struct.raw_spinlock = type { %struct.qspinlock }
%struct.qspinlock = type { %union.anon }
%union.anon = type { %struct.atomic_t }
%struct.atomic_t = type { i32 }
%struct.seqcount_raw_spinlock = type { %struct.seqcount }
%struct.seqcount = type { i32 }
%struct.clocksource = type { ptr, i64, i32, i32, i64, i32, i32, i64, ptr, %struct.list_head, i32, i32, i32, i64, ptr, ptr, ptr, ptr, ptr, ptr, %struct.list_head, i64, i64, ptr }
%struct.list_head = type { ptr, ptr }

@jiffies_lock = dso_local local_unnamed_addr global %struct.raw_spinlock zeroinitializer, section ".data..cacheline_aligned", align 64
@jiffies_seq = dso_local local_unnamed_addr global %struct.seqcount_raw_spinlock zeroinitializer, section ".data..cacheline_aligned", align 64
@jiffies = external dso_local global i64, section ".data..cacheline_aligned", align 64
@__UNIQUE_ID___addressable_jiffies306 = internal global ptr @jiffies, section ".discard.addressable", align 8
@__UNIQUE_ID___addressable_init_jiffies_clocksource308 = internal global ptr @init_jiffies_clocksource, section ".discard.addressable", align 8
@clocksource_jiffies = internal global %struct.clocksource { ptr @jiffies_read, i64 4294967295, i32 256000000, i32 8, i64 0, i32 0, i32 32000000, i64 10, ptr @.str.1, %struct.list_head zeroinitializer, i32 1, i32 0, i32 0, i64 0, ptr null, ptr null, ptr null, ptr null, ptr null, ptr null, %struct.list_head zeroinitializer, i64 0, i64 0, ptr null }, align 8
@refined_jiffies = internal global %struct.clocksource zeroinitializer, align 8
@.str = private unnamed_addr constant [16 x i8] c"refined-jiffies\00", align 1
@.str.1 = private unnamed_addr constant [8 x i8] c"jiffies\00", align 1
@llvm.compiler.used = appending global [2 x ptr] [ptr @__UNIQUE_ID___addressable_init_jiffies_clocksource308, ptr @__UNIQUE_ID___addressable_jiffies306], section "llvm.metadata"

; Function Attrs: cold fn_ret_thunk_extern nounwind null_pointer_is_valid optsize
define internal i32 @init_jiffies_clocksource() #0 section ".init.text" align 16 {
  %1 = tail call i32 @__clocksource_register_scale(ptr noundef nonnull @clocksource_jiffies, i32 noundef 1, i32 noundef 0) #5
  ret i32 %1
}

; Function Attrs: cold fn_ret_thunk_extern nounwind null_pointer_is_valid optsize
define weak dso_local ptr @clocksource_default_clock() local_unnamed_addr #0 section ".init.text" align 16 {
  ret ptr @clocksource_jiffies
}

; Function Attrs: fn_ret_thunk_extern nounwind null_pointer_is_valid
define dso_local noundef i32 @register_refined_jiffies(i64 noundef %0) local_unnamed_addr #1 align 16 {
  tail call void @llvm.memcpy.p0.p0.i64(ptr noundef nonnull align 8 dereferenceable(184) @refined_jiffies, ptr noundef nonnull align 8 dereferenceable(184) @clocksource_jiffies, i64 184, i1 false)
  store ptr @.str, ptr getelementptr inbounds (%struct.clocksource, ptr @refined_jiffies, i64 0, i32 8), align 8
  %2 = load i32, ptr getelementptr inbounds (%struct.clocksource, ptr @refined_jiffies, i64 0, i32 10), align 8
  %3 = add i32 %2, 1
  store i32 %3, ptr getelementptr inbounds (%struct.clocksource, ptr @refined_jiffies, i64 0, i32 10), align 8
  %4 = add i64 %0, 500
  %5 = sdiv i64 %4, 1000
  %6 = shl i64 %0, 8
  %7 = sdiv i64 %4, 2000
  %8 = add i64 %7, %6
  %9 = and i64 %5, 4294967295
  %10 = udiv i64 %8, %9
  %11 = lshr i64 %10, 1
  %12 = and i64 %11, 2147483647
  %13 = add nuw nsw i64 %12, 256000000000
  %14 = and i64 %10, 4294967295
  %15 = udiv i64 %13, %14
  %16 = trunc i64 %15 to i32
  %17 = shl i32 %16, 8
  store i32 %17, ptr getelementptr inbounds (%struct.clocksource, ptr @refined_jiffies, i64 0, i32 2), align 8
  %18 = tail call i32 @__clocksource_register_scale(ptr noundef nonnull @refined_jiffies, i32 noundef 1, i32 noundef 0) #5
  ret i32 0
}

; Function Attrs: mustprogress nocallback nofree nounwind willreturn memory(argmem: readwrite)
declare void @llvm.memcpy.p0.p0.i64(ptr noalias nocapture writeonly, ptr noalias nocapture readonly, i64, i1 immarg) #2

; Function Attrs: fn_ret_thunk_extern mustprogress nofree norecurse nounwind null_pointer_is_valid willreturn memory(readwrite, argmem: none)
define internal i64 @jiffies_read(ptr nocapture readnone %0) #3 align 16 {
  %2 = load volatile i64, ptr @jiffies, align 64
  ret i64 %2
}

; Function Attrs: null_pointer_is_valid
declare dso_local i32 @__clocksource_register_scale(ptr noundef, i32 noundef, i32 noundef) local_unnamed_addr #4


!llvm.module.flags = !{!0, !1, !2, !3, !4}

!0 = !{i32 1, !"wchar_size", i32 2}
!1 = !{i32 8, !"cf-protection-branch", i32 1}
!2 = !{i32 4, !"function_return_thunk_extern", i32 1}
!3 = !{i32 4, !"indirect_branch_cs_prefix", i32 1}
!4 = !{i32 4, !"SkipRaxSetup", i32 1}
